; Function Attrs: nounwind uwtable
define dso_local i32 @ExecGetResultRelCheckAsUser(ptr noundef readonly captures(none) %0, ptr noundef readonly captures(none) %1) local_unnamed_addr #0 {
  %3 = getelementptr inbounds nuw i8, ptr %0, i64 360
  %4 = load ptr, ptr %3, align 8
  %.not.i = icmp eq ptr %4, null
  %..i = select i1 %.not.i, ptr %0, ptr %4
  %.09.in.i = getelementptr inbounds nuw i8, ptr %..i, i64 4
  %.09.i = load i32, ptr %.09.in.i, align 4
  %.not13.i = icmp eq i32 %.09.i, 0
  br i1 %.not13.i, label %GetResultRTEPermissionInfo.exit.thread, label %GetResultRTEPermissionInfo.exit

GetResultRTEPermissionInfo.exit:                  ; preds = %2
  %5 = getelementptr i8, ptr %1, i64 24
  %.val.i = load ptr, ptr %5, align 8
  %6 = getelementptr i8, ptr %.val.i, i64 16
  %.val.val.i = load ptr, ptr %6, align 8
  %7 = add i32 %.09.i, -1
  %8 = sext i32 %7 to i64
  %9 = getelementptr inbounds %union.ListCell, ptr %.val.val.i, i64 %8
  %10 = load ptr, ptr %9, align 8
  %11 = getelementptr inbounds nuw i8, ptr %1, i64 56
  %12 = load ptr, ptr %11, align 8
  %13 = tail call ptr @getRTEPermissionInfo(ptr noundef %12, ptr noundef %10) #12
  %14 = icmp eq ptr %13, null
  br i1 %14, label %GetResultRTEPermissionInfo.exit.thread, label %21

GetResultRTEPermissionInfo.exit.thread:           ; preds = %2, %GetResultRTEPermissionInfo.exit
  %15 = tail call zeroext i1 @errstart_cold(i32 noundef 21, ptr noundef null) #13
  tail call void @llvm.assume(i1 %15)
  %16 = getelementptr inbounds nuw i8, ptr %0, i64 8
  %17 = load ptr, ptr %16, align 8
  %18 = getelementptr inbounds nuw i8, ptr %17, i64 72
  %19 = load i32, ptr %18, align 8
  %20 = tail call i32 (ptr, ...) @errmsg_internal(ptr noundef nonnull @.str.9, i32 noundef %19) #12
  tail call void @errfinish(ptr noundef nonnull @.str.4, i32 noundef 1486, ptr noundef nonnull @__func__.ExecGetResultRelCheckAsUser) #12
  unreachable

21:                                               ; preds = %GetResultRTEPermissionInfo.exit
  %22 = getelementptr inbounds nuw i8, ptr %13, i64 24
  %23 = load i32, ptr %22, align 8
  %.not = icmp eq i32 %23, 0
  br i1 %.not, label %24, label %26

24:                                               ; preds = %21
  %25 = tail call i32 @GetUserId() #12
  br label %26

26:                                               ; preds = %21, %24
  %27 = phi i32 [ %25, %24 ], [ %23, %21 ]
  ret i32 %27
}